; Function Attrs: mustprogress uwtable
define void @_ZN5faiss11IndexRefine5trainElPKf(ptr nocapture noundef nonnull align 8 dereferenceable(64) %0, i64 noundef %1, ptr noundef %2) unnamed_addr #1 align 2 {
  %4 = getelementptr inbounds i8, ptr %0, i64 40
  %5 = load ptr, ptr %4, align 8
  %6 = load ptr, ptr %5, align 8
  %7 = getelementptr inbounds i8, ptr %6, i64 16
  %8 = load ptr, ptr %7, align 8
  tail call void %8(ptr noundef nonnull align 8 dereferenceable(36) %5, i64 noundef %1, ptr noundef %2)
  %9 = getelementptr inbounds i8, ptr %0, i64 48
  %10 = load ptr, ptr %9, align 8
  %11 = load ptr, ptr %10, align 8
  %12 = getelementptr inbounds i8, ptr %11, i64 16
  %13 = load ptr, ptr %12, align 8
  tail call void %13(ptr noundef nonnull align 8 dereferenceable(36) %10, i64 noundef %1, ptr noundef %2)
  %14 = getelementptr inbounds i8, ptr %0, i64 25
  store i8 1, ptr %14, align 1
  ret void
}